target datalayout = "e-m:e-p270:32:32-p271:32:32-p272:64:64-i64:64-i128:128-f80:128-n8:16:32:64-S128"
target triple = "x86_64-unknown-linux-gnu"

%struct.redisServer = type { i32, i64, ptr, ptr, ptr, i32, i32, i32, i32, i32, ptr, ptr, ptr, ptr, ptr, ptr, i32, i32, i64, i32, i32, i32, i32, ptr, i32, i32, [41 x i8], i32, i64, i32, i32, i32, ptr, ptr, i32, i32, i64, ptr, ptr, ptr, ptr, [2 x i32], i32, i32, i32, i32, i32, [16 x ptr], i32, ptr, ptr, i32, [8 x %struct.connListener], i32, %struct.connListener, ptr, ptr, ptr, ptr, ptr, ptr, ptr, ptr, ptr, ptr, i32, ptr, i32, ptr, [3 x %struct.pause_event], [256 x i8], ptr, i64, i32, i32, i32, i32, i64, i32, i32, i32, i32, i32, i64, i64, i64, i64, i64, i64, i64, i64, i64, double, i64, i64, i64, i64, i64, i64, i64, i64, i64, i64, i64, i64, i64, i64, i64, i64, i64, i64, i64, i64, double, i64, i64, i64, i64, i64, ptr, i64, i64, i64, %struct.malloc_stats, i64, i64, i64, i64, i64, i64, i64, i64, i64, i64, i64, i64, double, [4 x i64], i64, i64, i64, i64, i64, i64, i64, i64, i64, i64, [7 x %struct.anon], i64, i64, i64, i64, i64, i64, [4 x %struct.durationStats], i32, i32, i32, i32, i32, i32, i32, i32, i32, i32, i64, i32, i32, i32, i32, i64, i64, i32, i32, i32, i32, i32, ptr, [3 x %struct.clientBufferLimitsConfig], i32, i32, ptr, i32, i32, i32, i32, ptr, ptr, i32, i32, i64, i64, i64, i64, i64, i32, i32, ptr, i32, i32, i64, i64, i64, i64, i64, i32, i32, i64, i32, i32, i32, i32, i32, i32, i32, i32, ptr, i32, i64, i64, i64, i64, ptr, i32, ptr, i32, i32, i32, i64, i64, i64, i64, i32, i32, i32, i32, i32, i32, ptr, i32, i32, ptr, i32, i32, i32, [2 x i32], i32, %struct.redisOpArray, i32, ptr, i32, ptr, i32, i32, i32, i32, i32, i32, i32, [41 x i8], [41 x i8], i64, i64, i64, i64, i32, i32, ptr, i64, i64, i64, i32, i32, i32, i32, i32, i32, i32, i64, ptr, ptr, ptr, ptr, i32, i32, ptr, ptr, i32, i32, i64, i64, i64, ptr, i32, ptr, i64, i32, i32, i32, i64, i32, i32, i32, i32, ptr, i32, i32, [41 x i8], i64, i32, ptr, i32, i32, i64, i64, i32, i32, i32, i32, i32, i64, [3 x i32], i32, i32, i32, [9 x i32], ptr, ptr, i32, i64, ptr, ptr, i32, i32, i32, i32, i64, i64, i64, i64, i64, i64, i64, i64, i64, i64, i32, i32, i64, i64, i32, i64, i64, i64, i64, i64, ptr, ptr, i32, ptr, i32, i32, i32, i64, i64, ptr, ptr, i32, i32, i32, i32, i32, ptr, ptr, ptr, i32, i32, i32, i32, i32, i32, i32, i64, i32, i64, i32, i32, i32, i32, i32, i32, i32, i64, ptr, ptr, i64, ptr, i32, %struct.aclInfo, i32, i64, i32, i32, i32, %struct.redisTLSContextConfig, ptr, ptr, ptr, ptr, ptr, i64, i32, ptr, i32, i32, i32, i64, i32, ptr }
%struct.connListener = type { [16 x i32], i32, ptr, i32, i32, ptr, ptr }
%struct.pause_event = type { i32, i64 }
%struct.malloc_stats = type { i64, i64, i64, i64, i64 }
%struct.anon = type { i64, i64, [16 x i64], i32 }
%struct.durationStats = type { i64, i64, i64 }
%struct.clientBufferLimitsConfig = type { i64, i64, i64 }
%struct.redisOpArray = type { ptr, i32, i32 }
%struct.aclInfo = type { i64, i64, i64, i64 }
%struct.redisTLSContextConfig = type { ptr, ptr, ptr, ptr, ptr, ptr, ptr, ptr, ptr, ptr, ptr, ptr, i32, i32, i32, i32 }

@server = dso_local global %struct.redisServer zeroinitializer, align 8
@.str.465 = private unnamed_addr constant [39 x i8] c"Received SIGINT scheduling shutdown...\00", align 1
@.str.466 = private unnamed_addr constant [40 x i8] c"Received SIGTERM scheduling shutdown...\00", align 1
@.str.467 = private unnamed_addr constant [49 x i8] c"Received shutdown signal, scheduling shutdown...\00", align 1
@.str.468 = private unnamed_addr constant [27 x i8] c"You insist... exiting now.\00", align 1
@.str.469 = private unnamed_addr constant [62 x i8] c"Received shutdown signal during loading, scheduling shutdown.\00", align 1

; Function Attrs: nounwind uwtable
define internal void @sigShutdownHandler(i32 noundef %sig) #0 {
entry:
  %sig.addr = alloca i32, align 4
  %msg = alloca ptr, align 8
  store i32 %sig, ptr %sig.addr, align 4
  %0 = load i32, ptr %sig.addr, align 4
  switch i32 %0, label %sw.default [
    i32 2, label %sw.bb
    i32 15, label %sw.bb1
  ]

sw.bb:                                            ; preds = %entry
  store ptr @.str.465, ptr %msg, align 8
  br label %sw.epilog

sw.bb1:                                           ; preds = %entry
  store ptr @.str.466, ptr %msg, align 8
  br label %sw.epilog

sw.default:                                       ; preds = %entry
  store ptr @.str.467, ptr %msg, align 8
  br label %sw.epilog

sw.epilog:                                        ; preds = %sw.default, %sw.bb1, %sw.bb
  %1 = load volatile i32, ptr getelementptr inbounds (%struct.redisServer, ptr @server, i32 0, i32 17), align 4
  %tobool = icmp ne i32 %1, 0
  br i1 %tobool, label %land.lhs.true, label %if.else

land.lhs.true:                                    ; preds = %sw.epilog
  %2 = load i32, ptr %sig.addr, align 4
  %cmp = icmp eq i32 %2, 2
  br i1 %cmp, label %if.then, label %if.else

if.then:                                          ; preds = %land.lhs.true
  call void @serverLogRawFromHandler(i32 noundef 3, ptr noundef @.str.468)
  %call = call i32 @getpid() #13
  call void @rdbRemoveTempFile(i32 noundef %call, i32 noundef 1)
  call void @exit(i32 noundef 1) #16
  unreachable

if.else:                                          ; preds = %land.lhs.true, %sw.epilog
  %3 = load volatile i32, ptr getelementptr inbounds (%struct.redisServer, ptr @server, i32 0, i32 81), align 4
  %tobool2 = icmp ne i32 %3, 0
  br i1 %tobool2, label %if.then3, label %if.end

if.then3:                                         ; preds = %if.else
  store ptr @.str.469, ptr %msg, align 8
  br label %if.end

if.end:                                           ; preds = %if.then3, %if.else
  br label %if.end4

if.end4:                                          ; preds = %if.end
  %4 = load ptr, ptr %msg, align 8
  call void @serverLogRawFromHandler(i32 noundef 3, ptr noundef %4)
  store volatile i32 1, ptr getelementptr inbounds (%struct.redisServer, ptr @server, i32 0, i32 17), align 4
  %5 = load i32, ptr %sig.addr, align 4
  store i32 %5, ptr getelementptr inbounds (%struct.redisServer, ptr @server, i32 0, i32 19), align 8
  ret void
}