; Function Attrs: nounwind uwtable
define internal void @sigShutdownHandler(i32 noundef %sig) #0 {
entry:
  %switch.selectcmp3 = icmp eq i32 %sig, 2
  %0 = load volatile i32, ptr getelementptr inbounds (%struct.redisServer, ptr @server, i64 0, i32 17), align 4
  %tobool = icmp ne i32 %0, 0
  %or.cond = and i1 %switch.selectcmp3, %tobool
  br i1 %or.cond, label %if.then, label %if.else

if.then:                                          ; preds = %entry
  tail call void @serverLogRawFromHandler(i32 noundef 3, ptr noundef nonnull @.str.468)
  %call = tail call i32 @getpid() #38
  tail call void @rdbRemoveTempFile(i32 noundef %call, i32 noundef 1) #38
  tail call void @exit(i32 noundef 1) #40
  unreachable

if.else:                                          ; preds = %entry
  %switch.selectcmp = icmp eq i32 %sig, 15
  %switch.select = select i1 %switch.selectcmp, ptr @.str.466, ptr @.str.467
  %switch.select4 = select i1 %switch.selectcmp3, ptr @.str.465, ptr %switch.select
  %1 = load volatile i32, ptr getelementptr inbounds (%struct.redisServer, ptr @server, i64 0, i32 81), align 4
  %tobool2.not = icmp eq i32 %1, 0
  %spec.select = select i1 %tobool2.not, ptr %switch.select4, ptr @.str.469
  tail call void @serverLogRawFromHandler(i32 noundef 3, ptr noundef nonnull %spec.select)
  store volatile i32 1, ptr getelementptr inbounds (%struct.redisServer, ptr @server, i64 0, i32 17), align 4
  store i32 %sig, ptr getelementptr inbounds (%struct.redisServer, ptr @server, i64 0, i32 19), align 8
  ret void
}